target datalayout = "e-m:e-p270:32:32-p271:32:32-p272:64:64-i64:64-i128:128-f80:128-n8:16:32:64-S128"
target triple = "x86_64-pc-linux-gnu"

%struct.MBCSData = type { %struct.NewConverter, ptr, [8192 x %struct._MBCSToUFallback], i32, ptr, [1088 x i16], [64448 x i16], [64448 x i32], ptr, i32, i32, [1024 x i16], i16, i8, i8 }
%struct.NewConverter = type { ptr, ptr, ptr, ptr }
%struct._MBCSToUFallback = type { i32, i32 }

; Function Attrs: mustprogress uwtable
define internal void @_ZL12MBCSDestructP8MBCSData(ptr noundef %0) #2 {
  %2 = alloca ptr, align 8
  store ptr %0, ptr %2, align 8, !tbaa !19
  %3 = load ptr, ptr %2, align 8, !tbaa !19
  %4 = getelementptr inbounds nuw %struct.MBCSData, ptr %3, i32 0, i32 4
  %5 = load ptr, ptr %4, align 8, !tbaa !81
  call void @uprv_free_77(ptr noundef %5)
  %6 = load ptr, ptr %2, align 8, !tbaa !19
  %7 = getelementptr inbounds nuw %struct.MBCSData, ptr %6, i32 0, i32 8
  %8 = load ptr, ptr %7, align 8, !tbaa !82
  call void @uprv_free_77(ptr noundef %8)
  ret void
}

; Function Attrs: mustprogress uwtable
define internal void @_ZL9MBCSCloseP12NewConverter(ptr noundef %0) #2 {
  %2 = alloca ptr, align 8
  %3 = alloca ptr, align 8
  store ptr %0, ptr %2, align 8, !tbaa !28
  call void @llvm.lifetime.start.p0(i64 8, ptr %3) #10
  %4 = load ptr, ptr %2, align 8, !tbaa !28
  store ptr %4, ptr %3, align 8, !tbaa !19
  %5 = load ptr, ptr %3, align 8, !tbaa !19
  %6 = icmp ne ptr %5, null
  br i1 %6, label %7, label %10

7:                                                ; preds = %1
  %8 = load ptr, ptr %3, align 8, !tbaa !19
  call void @_ZL12MBCSDestructP8MBCSData(ptr noundef %8)
  %9 = load ptr, ptr %3, align 8, !tbaa !19
  call void @uprv_free_77(ptr noundef %9)
  br label %10

10:                                               ; preds = %7, %1
  call void @llvm.lifetime.end.p0(i64 8, ptr %3) #10
  ret void
}